target datalayout = "e-m:e-p270:32:32-p271:32:32-p272:64:64-i64:64-i128:128-f80:128-n8:16:32:64-S128"
target triple = "x86_64-pc-linux-gnu"

%struct.cook = type { ptr, ptr, ptr, ptr, ptr, ptr, %struct.AudioDSPContext, %struct.GetBitContext, i32, i32, %struct.AVLFG, i32, ptr, ptr, ptr, [13 x %struct.VLC], [7 x %struct.VLC], i32, [31 x float], ptr, [8 x i8], [2048 x float], [1024 x float], [1024 x float], [1060 x float], [5 x ptr], i32, [5 x %struct.COOKSubpacket], [8 x i8] }
%struct.AudioDSPContext = type { ptr, ptr, ptr }
%struct.GetBitContext = type { ptr, ptr, i32, i32, i32 }
%struct.AVLFG = type { [64 x i32], i32 }
%struct.VLC = type { i32, ptr, i32, i32 }
%struct.COOKSubpacket = type { i32, i32, i32, i32, i32, i32, i32, i32, i32, i32, %struct.VLC, i32, i32, i32, i32, i32, [1024 x float], [1024 x float], %struct.cook_gains, %struct.cook_gains, [9 x i32], [9 x i32], [9 x i32], [9 x i32] }
%struct.cook_gains = type { ptr, ptr }

@pow2tab = internal global [127 x float] zeroinitializer, align 16

; Function Attrs: nounwind uwtable
define internal void @imlt_window_float(ptr noundef %0, ptr noundef %1, ptr noundef %2, ptr noundef %3) #1 {
  %5 = alloca ptr, align 8
  %6 = alloca ptr, align 8
  %7 = alloca ptr, align 8
  %8 = alloca ptr, align 8
  %9 = alloca float, align 4
  %10 = alloca i32, align 4
  store ptr %0, ptr %5, align 8, !tbaa !29
  store ptr %1, ptr %6, align 8, !tbaa !112
  store ptr %2, ptr %7, align 8, !tbaa !124
  store ptr %3, ptr %8, align 8, !tbaa !112
  call void @llvm.lifetime.start.p0(i64 4, ptr %9) #11
  %11 = load ptr, ptr %7, align 8, !tbaa !124
  %12 = getelementptr inbounds nuw %struct.cook_gains, ptr %11, i32 0, i32 1
  %13 = load ptr, ptr %12, align 8, !tbaa !126
  %14 = getelementptr inbounds i32, ptr %13, i64 0
  %15 = load i32, ptr %14, align 4, !tbaa !31
  %16 = add nsw i32 %15, 63
  %17 = sext i32 %16 to i64
  %18 = getelementptr inbounds [127 x float], ptr @pow2tab, i64 0, i64 %17
  %19 = load float, ptr %18, align 4, !tbaa !108
  store float %19, ptr %9, align 4, !tbaa !108
  call void @llvm.lifetime.start.p0(i64 4, ptr %10) #11
  store i32 0, ptr %10, align 4, !tbaa !31
  br label %20

20:                                               ; preds = %65, %4
  %21 = load i32, ptr %10, align 4, !tbaa !31
  %22 = load ptr, ptr %5, align 8, !tbaa !29
  %23 = getelementptr inbounds nuw %struct.cook, ptr %22, i32 0, i32 9
  %24 = load i32, ptr %23, align 4, !tbaa !59
  %25 = icmp slt i32 %21, %24
  br i1 %25, label %26, label %68

26:                                               ; preds = %20
  %27 = load ptr, ptr %6, align 8, !tbaa !112
  %28 = load i32, ptr %10, align 4, !tbaa !31
  %29 = sext i32 %28 to i64
  %30 = getelementptr inbounds float, ptr %27, i64 %29
  %31 = load float, ptr %30, align 4, !tbaa !108
  %32 = load float, ptr %9, align 4, !tbaa !108
  %33 = fmul nsz float %31, %32
  %34 = load ptr, ptr %5, align 8, !tbaa !29
  %35 = getelementptr inbounds nuw %struct.cook, ptr %34, i32 0, i32 14
  %36 = load ptr, ptr %35, align 8, !tbaa !118
  %37 = load i32, ptr %10, align 4, !tbaa !31
  %38 = sext i32 %37 to i64
  %39 = getelementptr inbounds float, ptr %36, i64 %38
  %40 = load float, ptr %39, align 4, !tbaa !108
  %41 = load ptr, ptr %8, align 8, !tbaa !112
  %42 = load i32, ptr %10, align 4, !tbaa !31
  %43 = sext i32 %42 to i64
  %44 = getelementptr inbounds float, ptr %41, i64 %43
  %45 = load float, ptr %44, align 4, !tbaa !108
  %46 = load ptr, ptr %5, align 8, !tbaa !29
  %47 = getelementptr inbounds nuw %struct.cook, ptr %46, i32 0, i32 14
  %48 = load ptr, ptr %47, align 8, !tbaa !118
  %49 = load ptr, ptr %5, align 8, !tbaa !29
  %50 = getelementptr inbounds nuw %struct.cook, ptr %49, i32 0, i32 9
  %51 = load i32, ptr %50, align 4, !tbaa !59
  %52 = sub nsw i32 %51, 1
  %53 = load i32, ptr %10, align 4, !tbaa !31
  %54 = sub nsw i32 %52, %53
  %55 = sext i32 %54 to i64
  %56 = getelementptr inbounds float, ptr %48, i64 %55
  %57 = load float, ptr %56, align 4, !tbaa !108
  %58 = fmul nsz float %45, %57
  %59 = fneg nsz float %58
  %60 = call nsz float @llvm.fmuladd.f32(float %33, float %40, float %59)
  %61 = load ptr, ptr %6, align 8, !tbaa !112
  %62 = load i32, ptr %10, align 4, !tbaa !31
  %63 = sext i32 %62 to i64
  %64 = getelementptr inbounds float, ptr %61, i64 %63
  store float %60, ptr %64, align 4, !tbaa !108
  br label %65

65:                                               ; preds = %26
  %66 = load i32, ptr %10, align 4, !tbaa !31
  %67 = add nsw i32 %66, 1
  store i32 %67, ptr %10, align 4, !tbaa !31
  br label %20, !llvm.loop !127

68:                                               ; preds = %20
  call void @llvm.lifetime.end.p0(i64 4, ptr %10) #11
  call void @llvm.lifetime.end.p0(i64 4, ptr %9) #11
  ret void
}