; Function Attrs: nofree norecurse nosync nounwind memory(read, argmem: readwrite, inaccessiblemem: none) uwtable
define internal void @imlt_window_float(ptr noundef readonly captures(none) %0, ptr noundef captures(none) %1, ptr noundef readonly captures(none) %2, ptr noundef readonly captures(none) %3) #5 {
  %5 = getelementptr inbounds nuw i8, ptr %2, i64 8
  %6 = load ptr, ptr %5, align 8, !tbaa !118
  %7 = load i32, ptr %6, align 4, !tbaa !92
  %8 = add nsw i32 %7, 63
  %9 = sext i32 %8 to i64
  %10 = getelementptr inbounds [127 x float], ptr @pow2tab, i64 0, i64 %9
  %11 = load float, ptr %10, align 4, !tbaa !66
  %12 = getelementptr inbounds nuw i8, ptr %0, i64 108
  %13 = load i32, ptr %12, align 4, !tbaa !39
  %14 = icmp sgt i32 %13, 0
  br i1 %14, label %.lr.ph, label %._crit_edge

.lr.ph:                                           ; preds = %4
  %15 = getelementptr inbounds nuw i8, ptr %0, i64 392
  %16 = load ptr, ptr %15, align 8, !tbaa !113
  %17 = zext nneg i32 %13 to i64
  %wide.trip.count = zext nneg i32 %13 to i64
  %18 = getelementptr float, ptr %16, i64 %17
  br label %19

19:                                               ; preds = %.lr.ph, %19
  %indvars.iv = phi i64 [ 0, %.lr.ph ], [ %indvars.iv.next, %19 ]
  %20 = getelementptr inbounds nuw float, ptr %1, i64 %indvars.iv
  %21 = load float, ptr %20, align 4, !tbaa !66
  %22 = fmul nsz float %11, %21
  %23 = getelementptr inbounds nuw float, ptr %16, i64 %indvars.iv
  %24 = load float, ptr %23, align 4, !tbaa !66
  %25 = getelementptr inbounds nuw float, ptr %3, i64 %indvars.iv
  %26 = load float, ptr %25, align 4, !tbaa !66
  %27 = xor i64 %indvars.iv, -1
  %28 = getelementptr float, ptr %18, i64 %27
  %29 = load float, ptr %28, align 4, !tbaa !66
  %30 = fneg nsz float %29
  %31 = fmul nsz float %26, %30
  %32 = tail call nsz float @llvm.fmuladd.f32(float %22, float %24, float %31)
  store float %32, ptr %20, align 4, !tbaa !66
  %indvars.iv.next = add nuw nsw i64 %indvars.iv, 1
  %exitcond.not = icmp eq i64 %indvars.iv.next, %wide.trip.count
  br i1 %exitcond.not, label %._crit_edge, label %19, !llvm.loop !119

._crit_edge:                                      ; preds = %19, %4
  ret void
}